target datalayout = "e-m:e-p270:32:32-p271:32:32-p272:64:64-i64:64-i128:128-f80:128-n8:16:32:64-S128"
target triple = "x86_64-unknown-linux-gnu"

%class.fpa_rewriter = type <{ %class.fpa_util, ptr, i8, [7 x i8] }>
%class.fpa_util = type { ptr, ptr, i32, %class.arith_util, %class.bv_util }
%class.arith_util = type { ptr, ptr }
%class.bv_util = type { %class.bv_recognizers, ptr, ptr }
%class.bv_recognizers = type { i32 }

; Function Attrs: mustprogress nounwind uwtable
define linkonce_odr hidden noundef i32 @_ZNK11ast_manager9get_eq_opEPK4expr(ptr noundef nonnull align 8 dereferenceable(976) %this, ptr noundef %n) #5 comdat align 2 {
entry:
  %this.addr = alloca ptr, align 8
  %n.addr = alloca ptr, align 8
  store ptr %this, ptr %this.addr, align 8
  store ptr %n, ptr %n.addr, align 8
  ret i32 2
}

; Function Attrs: mustprogress nounwind uwtable
define linkonce_odr hidden noundef nonnull align 8 dereferenceable(976) ptr @_ZNK8fpa_util1mEv(ptr noundef nonnull align 8 dereferenceable(64) %this) #5 comdat align 2 {
entry:
  %this.addr = alloca ptr, align 8
  store ptr %this, ptr %this.addr, align 8
  %this1 = load ptr, ptr %this.addr, align 8
  %m_manager = getelementptr inbounds %class.fpa_util, ptr %this1, i32 0, i32 0
  %0 = load ptr, ptr %m_manager, align 8
  ret ptr %0
}

; Function Attrs: mustprogress uwtable
define linkonce_odr hidden noundef ptr @_ZN11ast_manager5mk_eqEP4exprS1_(ptr noundef nonnull align 8 dereferenceable(976) %this, ptr noundef %lhs, ptr noundef %rhs) #4 comdat align 2 {
entry:
  %this.addr = alloca ptr, align 8
  %lhs.addr = alloca ptr, align 8
  %rhs.addr = alloca ptr, align 8
  store ptr %this, ptr %this.addr, align 8
  store ptr %lhs, ptr %lhs.addr, align 8
  store ptr %rhs, ptr %rhs.addr, align 8
  %this1 = load ptr, ptr %this.addr, align 8
  %0 = load ptr, ptr %lhs.addr, align 8
  %call = call noundef i32 @_ZNK11ast_manager9get_eq_opEPK4expr(ptr noundef nonnull align 8 dereferenceable(976) %this1, ptr noundef %0)
  %1 = load ptr, ptr %lhs.addr, align 8
  %2 = load ptr, ptr %rhs.addr, align 8
  %call2 = call noundef ptr @_ZN11ast_manager6mk_appEiiP4exprS1_(ptr noundef nonnull align 8 dereferenceable(976) %this1, i32 noundef 0, i32 noundef %call, ptr noundef %1, ptr noundef %2)
  ret ptr %call2
}

; Function Attrs: mustprogress uwtable
define linkonce_odr hidden noundef ptr @_ZN8fpa_util6mk_nanEP4sort(ptr noundef nonnull align 8 dereferenceable(64) %this, ptr noundef %s) #4 comdat align 2 {
entry:
  %this.addr = alloca ptr, align 8
  %s.addr = alloca ptr, align 8
  store ptr %this, ptr %this.addr, align 8
  store ptr %s, ptr %s.addr, align 8
  %this1 = load ptr, ptr %this.addr, align 8
  %0 = load ptr, ptr %s.addr, align 8
  %call = call noundef i32 @_ZNK8fpa_util9get_ebitsEP4sort(ptr noundef nonnull align 8 dereferenceable(64) %this1, ptr noundef %0)
  %1 = load ptr, ptr %s.addr, align 8
  %call2 = call noundef i32 @_ZNK8fpa_util9get_sbitsEP4sort(ptr noundef nonnull align 8 dereferenceable(64) %this1, ptr noundef %1)
  %call3 = call noundef ptr @_ZN8fpa_util6mk_nanEjj(ptr noundef nonnull align 8 dereferenceable(64) %this1, i32 noundef %call, i32 noundef %call2)
  ret ptr %call3
}

; Function Attrs: mustprogress uwtable
define linkonce_odr hidden noundef nonnull align 8 dereferenceable(976) ptr @_ZNK12fpa_rewriter1mEv(ptr noundef nonnull align 8 dereferenceable(73) %this) #4 comdat align 2 {
entry:
  %this.addr = alloca ptr, align 8
  store ptr %this, ptr %this.addr, align 8
  %this1 = load ptr, ptr %this.addr, align 8
  %m_util = getelementptr inbounds %class.fpa_rewriter, ptr %this1, i32 0, i32 0
  %call = call noundef nonnull align 8 dereferenceable(976) ptr @_ZNK8fpa_util1mEv(ptr noundef nonnull align 8 dereferenceable(64) %m_util)
  ret ptr %call
}

; Function Attrs: mustprogress uwtable
define hidden noundef ptr @_ZN12fpa_rewriter9mk_eq_nanEP4expr(ptr noundef nonnull align 8 dereferenceable(73) %this, ptr noundef %arg) #4 align 2 {
entry:
  %this.addr = alloca ptr, align 8
  %arg.addr = alloca ptr, align 8
  store ptr %this, ptr %this.addr, align 8
  store ptr %arg, ptr %arg.addr, align 8
  %this1 = load ptr, ptr %this.addr, align 8
  %call = call noundef nonnull align 8 dereferenceable(976) ptr @_ZNK12fpa_rewriter1mEv(ptr noundef nonnull align 8 dereferenceable(73) %this1)
  %0 = load ptr, ptr %arg.addr, align 8
  %m_util = getelementptr inbounds %class.fpa_rewriter, ptr %this1, i32 0, i32 0
  %1 = load ptr, ptr %arg.addr, align 8
  %call2 = call noundef ptr @_ZNK4expr8get_sortEv(ptr noundef nonnull align 4 dereferenceable(16) %1)
  %call3 = call noundef ptr @_ZN8fpa_util6mk_nanEP4sort(ptr noundef nonnull align 8 dereferenceable(64) %m_util, ptr noundef %call2)
  %call4 = call noundef ptr @_ZN11ast_manager5mk_eqEP4exprS1_(ptr noundef nonnull align 8 dereferenceable(976) %call, ptr noundef %0, ptr noundef %call3)
  ret ptr %call4
}