; Function Attrs: mustprogress uwtable
define hidden noundef ptr @_ZN12fpa_rewriter9mk_eq_nanEP4expr(ptr noundef nonnull align 8 dereferenceable(73) %this, ptr noundef nonnull %arg) local_unnamed_addr #3 align 2 {
entry:
  %0 = load ptr, ptr %this, align 8
  %call2 = tail call noundef ptr @_ZNK4expr8get_sortEv(ptr noundef nonnull align 4 dereferenceable(16) %arg)
  %call.i = tail call noundef i32 @_ZNK8fpa_util9get_ebitsEP4sort(ptr noundef nonnull align 8 dereferenceable(64) %this, ptr noundef %call2)
  %call2.i = tail call noundef i32 @_ZNK8fpa_util9get_sbitsEP4sort(ptr noundef nonnull align 8 dereferenceable(64) %this, ptr noundef %call2)
  %call3.i = tail call noundef ptr @_ZN8fpa_util6mk_nanEjj(ptr noundef nonnull align 8 dereferenceable(64) %this, i32 noundef %call.i, i32 noundef %call2.i)
  %call2.i2 = tail call noundef ptr @_ZN11ast_manager6mk_appEiiP4exprS1_(ptr noundef nonnull align 8 dereferenceable(976) %0, i32 noundef 0, i32 noundef 2, ptr noundef nonnull %arg, ptr noundef %call3.i)
  ret ptr %call2.i2
}